; Function Attrs: nounwind uwtable
define void @Kit_PlaToIsop(ptr noundef %0, ptr noundef captures(none) %1) local_unnamed_addr #3 {
  br label %3

3:                                                ; preds = %5, %2
  %.0.i = phi ptr [ %0, %2 ], [ %6, %5 ]
  %4 = load i8, ptr %.0.i, align 1, !tbaa !3
  switch i8 %4, label %5 [
    i8 10, label %Kit_PlaGetVarNum.exit
    i8 0, label %Kit_PlaGetVarNum.exit.thread
  ]

5:                                                ; preds = %3
  %6 = getelementptr inbounds nuw i8, ptr %.0.i, i64 1
  br label %3, !llvm.loop !6

Kit_PlaGetVarNum.exit:                            ; preds = %3
  %7 = ptrtoint ptr %.0.i to i64
  %8 = ptrtoint ptr %0 to i64
  %9 = sub i64 %7, %8
  %10 = trunc i64 %9 to i32
  %11 = add i32 %10, -2
  %12 = getelementptr inbounds nuw i8, ptr %1, i64 4
  store i32 0, ptr %12, align 4, !tbaa !12
  %13 = load i8, ptr %0, align 1, !tbaa !3
  %.not26 = icmp eq i8 %13, 0
  br i1 %.not26, label %._crit_edge28, label %.preheader.lr.ph

Kit_PlaGetVarNum.exit.thread:                     ; preds = %3
  %14 = getelementptr inbounds nuw i8, ptr %1, i64 4
  store i32 0, ptr %14, align 4, !tbaa !12
  %15 = load i8, ptr %0, align 1, !tbaa !3
  %.not2633 = icmp eq i8 %15, 0
  br i1 %.not2633, label %._crit_edge28, label %.preheader.lr.ph.thread

.preheader.lr.ph.thread:                          ; preds = %Kit_PlaGetVarNum.exit.thread
  %.phi.trans.insert.i36 = getelementptr inbounds nuw i8, ptr %1, i64 8
  br label %.preheader.preheader

.preheader.lr.ph:                                 ; preds = %Kit_PlaGetVarNum.exit
  %16 = icmp sgt i32 %11, 0
  %.phi.trans.insert.i = getelementptr inbounds nuw i8, ptr %1, i64 8
  %17 = sext i32 %11 to i64
  br i1 %16, label %.preheader.us.preheader, label %.preheader.preheader

.preheader.preheader:                             ; preds = %.preheader.lr.ph.thread, %.preheader.lr.ph
  %18 = phi i64 [ -1, %.preheader.lr.ph.thread ], [ %17, %.preheader.lr.ph ]
  %.phi.trans.insert.i37 = phi ptr [ %.phi.trans.insert.i36, %.preheader.lr.ph.thread ], [ %.phi.trans.insert.i, %.preheader.lr.ph ]
  %19 = phi ptr [ %14, %.preheader.lr.ph.thread ], [ %12, %.preheader.lr.ph ]
  br label %.preheader

.preheader.us.preheader:                          ; preds = %.preheader.lr.ph
  %20 = zext nneg i32 %11 to i64
  br label %.preheader.us

.preheader.us:                                    ; preds = %.preheader.us.preheader, %Vec_IntPush.exit.us
  %.01927.us = phi ptr [ %47, %Vec_IntPush.exit.us ], [ %0, %.preheader.us.preheader ]
  br label %49

.Vec_IntGrow.exit10_crit_edge.i.us:               ; preds = %._crit_edge.us
  %.pre.i.us = load ptr, ptr %.phi.trans.insert.i, align 8, !tbaa !17
  br label %Vec_IntPush.exit.us

21:                                               ; preds = %._crit_edge.us
  %22 = icmp slt i32 %62, 16
  br i1 %22, label %34, label %23

23:                                               ; preds = %21
  %24 = shl nuw nsw i32 %62, 1
  %25 = load ptr, ptr %.phi.trans.insert.i, align 8, !tbaa !17
  %.not9.i9.i.us = icmp eq ptr %25, null
  %26 = zext nneg i32 %24 to i64
  %27 = shl nuw nsw i64 %26, 2
  br i1 %.not9.i9.i.us, label %30, label %28

28:                                               ; preds = %23
  %29 = tail call ptr @realloc(ptr noundef nonnull %25, i64 noundef %27) #13
  br label %32

30:                                               ; preds = %23
  %31 = tail call noalias ptr @malloc(i64 noundef %27) #14
  br label %32

32:                                               ; preds = %30, %28
  %33 = phi ptr [ %29, %28 ], [ %31, %30 ]
  store ptr %33, ptr %.phi.trans.insert.i, align 8, !tbaa !17
  store i32 %24, ptr %1, align 8, !tbaa !21
  br label %Vec_IntPush.exit.us

34:                                               ; preds = %21
  %35 = load ptr, ptr %.phi.trans.insert.i, align 8, !tbaa !17
  %.not9.i.i.us = icmp eq ptr %35, null
  br i1 %.not9.i.i.us, label %38, label %36

36:                                               ; preds = %34
  %37 = tail call dereferenceable_or_null(64) ptr @realloc(ptr noundef nonnull %35, i64 noundef 64) #13
  br label %Vec_IntGrow.exit.i.us

38:                                               ; preds = %34
  %39 = tail call noalias dereferenceable_or_null(64) ptr @malloc(i64 noundef 64) #14
  br label %Vec_IntGrow.exit.i.us

Vec_IntGrow.exit.i.us:                            ; preds = %38, %36
  %40 = phi ptr [ %37, %36 ], [ %39, %38 ]
  store ptr %40, ptr %.phi.trans.insert.i, align 8, !tbaa !17
  store i32 16, ptr %1, align 8, !tbaa !21
  br label %Vec_IntPush.exit.us

Vec_IntPush.exit.us:                              ; preds = %Vec_IntGrow.exit.i.us, %32, %.Vec_IntGrow.exit10_crit_edge.i.us
  %41 = phi ptr [ %.pre.i.us, %.Vec_IntGrow.exit10_crit_edge.i.us ], [ %33, %32 ], [ %40, %Vec_IntGrow.exit.i.us ]
  %42 = load i32, ptr %12, align 4, !tbaa !12
  %43 = add nsw i32 %42, 1
  store i32 %43, ptr %12, align 4, !tbaa !12
  %44 = sext i32 %42 to i64
  %45 = getelementptr inbounds i32, ptr %41, i64 %44
  store i32 %.1.us, ptr %45, align 4, !tbaa !18
  %46 = getelementptr i8, ptr %.01927.us, i64 %17
  %47 = getelementptr i8, ptr %46, i64 3
  %48 = load i8, ptr %47, align 1, !tbaa !3
  %.not.us = icmp eq i8 %48, 0
  br i1 %.not.us, label %._crit_edge28, label %.preheader.us, !llvm.loop !22

49:                                               ; preds = %.preheader.us, %60
  %indvars.iv = phi i64 [ %20, %.preheader.us ], [ %indvars.iv.next, %60 ]
  %.024.us = phi i32 [ 0, %.preheader.us ], [ %.1.us, %60 ]
  %indvars.iv.next = add nsw i64 %indvars.iv, -1
  %50 = getelementptr inbounds nuw i8, ptr %.01927.us, i64 %indvars.iv.next
  %51 = load i8, ptr %50, align 1, !tbaa !3
  switch i8 %51, label %60 [
    i8 48, label %57
    i8 49, label %54
    i8 45, label %52
  ]

52:                                               ; preds = %49
  %53 = shl i32 %.024.us, 2
  br label %60

54:                                               ; preds = %49
  %55 = shl i32 %.024.us, 2
  %56 = or disjoint i32 %55, 2
  br label %60

57:                                               ; preds = %49
  %58 = shl i32 %.024.us, 2
  %59 = or disjoint i32 %58, 1
  br label %60

60:                                               ; preds = %57, %54, %52, %49
  %.1.us = phi i32 [ %59, %57 ], [ %56, %54 ], [ %53, %52 ], [ %.024.us, %49 ]
  %61 = icmp sgt i64 %indvars.iv, 1
  br i1 %61, label %49, label %._crit_edge.us, !llvm.loop !23

._crit_edge.us:                                   ; preds = %60
  %62 = load i32, ptr %12, align 4, !tbaa !12
  %63 = load i32, ptr %1, align 8, !tbaa !21
  %64 = icmp eq i32 %62, %63
  br i1 %64, label %21, label %.Vec_IntGrow.exit10_crit_edge.i.us

.preheader:                                       ; preds = %.preheader.preheader, %Vec_IntPush.exit
  %.01927 = phi ptr [ %94, %Vec_IntPush.exit ], [ %0, %.preheader.preheader ]
  %65 = load i32, ptr %19, align 4, !tbaa !12
  %66 = load i32, ptr %1, align 8, !tbaa !21
  %67 = icmp eq i32 %65, %66
  br i1 %67, label %68, label %.Vec_IntGrow.exit10_crit_edge.i

.Vec_IntGrow.exit10_crit_edge.i:                  ; preds = %.preheader
  %.pre.i = load ptr, ptr %.phi.trans.insert.i37, align 8, !tbaa !17
  br label %Vec_IntPush.exit

68:                                               ; preds = %.preheader
  %69 = icmp slt i32 %65, 16
  br i1 %69, label %70, label %77

70:                                               ; preds = %68
  %71 = load ptr, ptr %.phi.trans.insert.i37, align 8, !tbaa !17
  %.not9.i.i = icmp eq ptr %71, null
  br i1 %.not9.i.i, label %74, label %72

72:                                               ; preds = %70
  %73 = tail call dereferenceable_or_null(64) ptr @realloc(ptr noundef nonnull %71, i64 noundef 64) #13
  br label %Vec_IntGrow.exit.i

74:                                               ; preds = %70
  %75 = tail call noalias dereferenceable_or_null(64) ptr @malloc(i64 noundef 64) #14
  br label %Vec_IntGrow.exit.i

Vec_IntGrow.exit.i:                               ; preds = %74, %72
  %76 = phi ptr [ %73, %72 ], [ %75, %74 ]
  store ptr %76, ptr %.phi.trans.insert.i37, align 8, !tbaa !17
  store i32 16, ptr %1, align 8, !tbaa !21
  br label %Vec_IntPush.exit

77:                                               ; preds = %68
  %78 = shl nuw nsw i32 %65, 1
  %79 = load ptr, ptr %.phi.trans.insert.i37, align 8, !tbaa !17
  %.not9.i9.i = icmp eq ptr %79, null
  %80 = zext nneg i32 %78 to i64
  %81 = shl nuw nsw i64 %80, 2
  br i1 %.not9.i9.i, label %84, label %82

82:                                               ; preds = %77
  %83 = tail call ptr @realloc(ptr noundef nonnull %79, i64 noundef %81) #13
  br label %86

84:                                               ; preds = %77
  %85 = tail call noalias ptr @malloc(i64 noundef %81) #14
  br label %86

86:                                               ; preds = %84, %82
  %87 = phi ptr [ %83, %82 ], [ %85, %84 ]
  store ptr %87, ptr %.phi.trans.insert.i37, align 8, !tbaa !17
  store i32 %78, ptr %1, align 8, !tbaa !21
  br label %Vec_IntPush.exit

Vec_IntPush.exit:                                 ; preds = %.Vec_IntGrow.exit10_crit_edge.i, %Vec_IntGrow.exit.i, %86
  %88 = phi ptr [ %.pre.i, %.Vec_IntGrow.exit10_crit_edge.i ], [ %87, %86 ], [ %76, %Vec_IntGrow.exit.i ]
  %89 = load i32, ptr %19, align 4, !tbaa !12
  %90 = add nsw i32 %89, 1
  store i32 %90, ptr %19, align 4, !tbaa !12
  %91 = sext i32 %89 to i64
  %92 = getelementptr inbounds i32, ptr %88, i64 %91
  store i32 0, ptr %92, align 4, !tbaa !18
  %93 = getelementptr i8, ptr %.01927, i64 %18
  %94 = getelementptr i8, ptr %93, i64 3
  %95 = load i8, ptr %94, align 1, !tbaa !3
  %.not = icmp eq i8 %95, 0
  br i1 %.not, label %._crit_edge28, label %.preheader, !llvm.loop !22

._crit_edge28:                                    ; preds = %Vec_IntPush.exit, %Vec_IntPush.exit.us, %Kit_PlaGetVarNum.exit.thread, %Kit_PlaGetVarNum.exit
  ret void
}